	.section	__TEXT,__text,regular,pure_instructions
	.build_version macos, 14, 0	sdk_version 15, 2
	.globl	_main                           ; -- Begin function main
	.p2align	2
_main:                                  ; @main
	.cfi_startproc
; %bb.0:
	stp	d9, d8, [sp, #-64]!             ; 16-byte Folded Spill
	stp	x22, x21, [sp, #16]             ; 16-byte Folded Spill
	stp	x20, x19, [sp, #32]             ; 16-byte Folded Spill
	stp	x29, x30, [sp, #48]             ; 16-byte Folded Spill
	add	x29, sp, #48
	.cfi_def_cfa w29, 16
	.cfi_offset w30, -8
	.cfi_offset w29, -16
	.cfi_offset w19, -24
	.cfi_offset w20, -32
	.cfi_offset w21, -40
	.cfi_offset w22, -48
	.cfi_offset b8, -56
	.cfi_offset b9, -64
	mov	w21, #2048                      ; =0x800
	movk	w21, #12207, lsl #16
	mov	w0, #2048                       ; =0x800
	movk	w0, #12207, lsl #16
	bl	__Znam
	mov	x19, x0
Lloh0:
	adrp	x1, l_.memset_pattern@PAGE
Lloh1:
	add	x1, x1, l_.memset_pattern@PAGEOFF
	mov	w2, #2048                       ; =0x800
	movk	w2, #12207, lsl #16
	bl	_memset_pattern16
	bl	__ZNSt3__16chrono12steady_clock3nowEv
	movi.2d	v7, #0000000000000000
	mov	x20, x0
	mov	x8, #0                          ; =0x0
	movi.2d	v0, #0000000000000000
	movi.2d	v1, #0000000000000000
	movi.2d	v2, #0000000000000000
LBB0_1:                                 ; =>This Inner Loop Header: Depth=1
	add	x9, x19, x8
	ldp	q3, q4, [x9]
	ldp	q5, q6, [x9, #32]
	fadd.2d	v7, v3, v7
	fadd.2d	v0, v4, v0
	fadd.2d	v1, v5, v1
	fadd.2d	v2, v6, v2
	add	x8, x8, #64
	cmp	x21, x8
	b.ne	LBB0_1
; %bb.2:
	fadd.2d	v0, v0, v7
	fadd.2d	v0, v1, v0
	fadd.2d	v0, v2, v0
	faddp.2d	d8, v0
	bl	__ZNSt3__16chrono12steady_clock3nowEv
	sub	x8, x0, x20
	scvtf	d0, x8
	mov	x8, #60813                      ; =0xed8d
	movk	x8, #41141, lsl #16
	movk	x8, #50935, lsl #32
	movk	x8, #16048, lsl #48
	fmov	d1, x8
	fmul	d9, d0, d1
Lloh2:
	adrp	x0, __ZNSt3__14coutE@GOTPAGE
Lloh3:
	ldr	x0, [x0, __ZNSt3__14coutE@GOTPAGEOFF]
Lloh4:
	adrp	x1, l_.str@PAGE
Lloh5:
	add	x1, x1, l_.str@PAGEOFF
	mov	w2, #5                          ; =0x5
	bl	__ZNSt3__124__put_character_sequenceB8ne180100IcNS_11char_traitsIcEEEERNS_13basic_ostreamIT_T0_EES7_PKS4_m
	fmov	d0, d8
	bl	__ZNSt3__113basic_ostreamIcNS_11char_traitsIcEEElsEd
Lloh6:
	adrp	x1, l_.str.1@PAGE
Lloh7:
	add	x1, x1, l_.str.1@PAGEOFF
	mov	w2, #8                          ; =0x8
	bl	__ZNSt3__124__put_character_sequenceB8ne180100IcNS_11char_traitsIcEEEERNS_13basic_ostreamIT_T0_EES7_PKS4_m
	fmov	d0, d9
	bl	__ZNSt3__113basic_ostreamIcNS_11char_traitsIcEEElsEd
Lloh8:
	adrp	x1, l_.str.2@PAGE
Lloh9:
	add	x1, x1, l_.str.2@PAGEOFF
	mov	w2, #4                          ; =0x4
	bl	__ZNSt3__124__put_character_sequenceB8ne180100IcNS_11char_traitsIcEEEERNS_13basic_ostreamIT_T0_EES7_PKS4_m
	mov	x0, x19
	bl	__ZdaPv
	mov	w0, #0                          ; =0x0
	ldp	x29, x30, [sp, #48]             ; 16-byte Folded Reload
	ldp	x20, x19, [sp, #32]             ; 16-byte Folded Reload
	ldp	x22, x21, [sp, #16]             ; 16-byte Folded Reload
	ldp	d9, d8, [sp], #64               ; 16-byte Folded Reload
	ret
	.loh AdrpAdd	Lloh0, Lloh1
	.loh AdrpAdd	Lloh8, Lloh9
	.loh AdrpAdd	Lloh6, Lloh7
	.loh AdrpAdd	Lloh4, Lloh5
	.loh AdrpLdrGot	Lloh2, Lloh3
	.cfi_endproc
                                        ; -- End function
	.private_extern	__ZNSt3__124__put_character_sequenceB8ne180100IcNS_11char_traitsIcEEEERNS_13basic_ostreamIT_T0_EES7_PKS4_m ; -- Begin function _ZNSt3__124__put_character_sequenceB8ne180100IcNS_11char_traitsIcEEEERNS_13basic_ostreamIT_T0_EES7_PKS4_m
	.globl	__ZNSt3__124__put_character_sequenceB8ne180100IcNS_11char_traitsIcEEEERNS_13basic_ostreamIT_T0_EES7_PKS4_m
	.weak_def_can_be_hidden	__ZNSt3__124__put_character_sequenceB8ne180100IcNS_11char_traitsIcEEEERNS_13basic_ostreamIT_T0_EES7_PKS4_m
	.p2align	2
__ZNSt3__124__put_character_sequenceB8ne180100IcNS_11char_traitsIcEEEERNS_13basic_ostreamIT_T0_EES7_PKS4_m: ; @_ZNSt3__124__put_character_sequenceB8ne180100IcNS_11char_traitsIcEEEERNS_13basic_ostreamIT_T0_EES7_PKS4_m
Lfunc_begin0:
	.cfi_startproc
	.cfi_personality 155, ___gxx_personality_v0
	.cfi_lsda 16, Lexception0
; %bb.0:
	sub	sp, sp, #112
	stp	x26, x25, [sp, #32]             ; 16-byte Folded Spill
	stp	x24, x23, [sp, #48]             ; 16-byte Folded Spill
	stp	x22, x21, [sp, #64]             ; 16-byte Folded Spill
	stp	x20, x19, [sp, #80]             ; 16-byte Folded Spill
	stp	x29, x30, [sp, #96]             ; 16-byte Folded Spill
	add	x29, sp, #96
	.cfi_def_cfa w29, 16
	.cfi_offset w30, -8
	.cfi_offset w29, -16
	.cfi_offset w19, -24
	.cfi_offset w20, -32
	.cfi_offset w21, -40
	.cfi_offset w22, -48
	.cfi_offset w23, -56
	.cfi_offset w24, -64
	.cfi_offset w25, -72
	.cfi_offset w26, -80
	mov	x21, x2
	mov	x20, x1
	mov	x19, x0
Ltmp0:
	add	x0, sp, #8
	mov	x1, x19
	bl	__ZNSt3__113basic_ostreamIcNS_11char_traitsIcEEE6sentryC1ERS3_
Ltmp1:
; %bb.1:
	ldrb	w8, [sp, #8]
	cbz	w8, LBB1_10
; %bb.2:
	ldr	x8, [x19]
	ldur	x8, [x8, #-24]
	add	x22, x19, x8
	ldr	x23, [x22, #40]
	ldr	w25, [x22, #8]
	ldr	w24, [x22, #144]
	cmn	w24, #1
	b.ne	LBB1_7
; %bb.3:
Ltmp3:
	add	x8, sp, #24
	mov	x0, x22
	bl	__ZNKSt3__18ios_base6getlocEv
Ltmp4:
; %bb.4:
Ltmp5:
Lloh10:
	adrp	x1, __ZNSt3__15ctypeIcE2idE@GOTPAGE
Lloh11:
	ldr	x1, [x1, __ZNSt3__15ctypeIcE2idE@GOTPAGEOFF]
	add	x0, sp, #24
	bl	__ZNKSt3__16locale9use_facetERNS0_2idE
Ltmp6:
; %bb.5:
	ldr	x8, [x0]
	ldr	x8, [x8, #56]
Ltmp7:
	mov	w1, #32                         ; =0x20
	blr	x8
Ltmp8:
; %bb.6:
	mov	x24, x0
	add	x0, sp, #24
	bl	__ZNSt3__16localeD1Ev
	str	w24, [x22, #144]
LBB1_7:
	mov	w8, #176                        ; =0xb0
	and	w8, w25, w8
	add	x3, x20, x21
	cmp	w8, #32
	csel	x2, x3, x20, eq
Ltmp10:
	sxtb	w5, w24
	mov	x0, x23
	mov	x1, x20
	mov	x4, x22
	bl	__ZNSt3__116__pad_and_outputB8ne180100IcNS_11char_traitsIcEEEENS_19ostreambuf_iteratorIT_T0_EES6_PKS4_S8_S8_RNS_8ios_baseES4_
Ltmp11:
; %bb.8:
	cbnz	x0, LBB1_10
; %bb.9:
	ldr	x8, [x19]
	ldur	x8, [x8, #-24]
	add	x0, x19, x8
	ldr	w8, [x0, #32]
	mov	w9, #5                          ; =0x5
	orr	w1, w8, w9
Ltmp13:
	bl	__ZNSt3__18ios_base5clearEj
Ltmp14:
LBB1_10:
	add	x0, sp, #8
	bl	__ZNSt3__113basic_ostreamIcNS_11char_traitsIcEEE6sentryD1Ev
LBB1_11:
	mov	x0, x19
	ldp	x29, x30, [sp, #96]             ; 16-byte Folded Reload
	ldp	x20, x19, [sp, #80]             ; 16-byte Folded Reload
	ldp	x22, x21, [sp, #64]             ; 16-byte Folded Reload
	ldp	x24, x23, [sp, #48]             ; 16-byte Folded Reload
	ldp	x26, x25, [sp, #32]             ; 16-byte Folded Reload
	add	sp, sp, #112
	ret
LBB1_12:
Ltmp15:
	b	LBB1_15
LBB1_13:
Ltmp9:
	mov	x20, x0
	add	x0, sp, #24
	bl	__ZNSt3__16localeD1Ev
	b	LBB1_16
LBB1_14:
Ltmp12:
LBB1_15:
	mov	x20, x0
LBB1_16:
	add	x0, sp, #8
	bl	__ZNSt3__113basic_ostreamIcNS_11char_traitsIcEEE6sentryD1Ev
	b	LBB1_18
LBB1_17:
Ltmp2:
	mov	x20, x0
LBB1_18:
	mov	x0, x20
	bl	___cxa_begin_catch
	ldr	x8, [x19]
	ldur	x8, [x8, #-24]
	add	x0, x19, x8
Ltmp16:
	bl	__ZNSt3__18ios_base33__set_badbit_and_consider_rethrowEv
Ltmp17:
; %bb.19:
	bl	___cxa_end_catch
	b	LBB1_11
LBB1_20:
Ltmp18:
	mov	x19, x0
Ltmp19:
	bl	___cxa_end_catch
Ltmp20:
; %bb.21:
	mov	x0, x19
	bl	__Unwind_Resume
LBB1_22:
Ltmp21:
	bl	___clang_call_terminate
	.loh AdrpLdrGot	Lloh10, Lloh11
Lfunc_end0:
	.cfi_endproc
	.section	__TEXT,__gcc_except_tab
	.p2align	2, 0x0
GCC_except_table1:
Lexception0:
	.byte	255                             ; @LPStart Encoding = omit
	.byte	155                             ; @TType Encoding = indirect pcrel sdata4
	.uleb128 Lttbase0-Lttbaseref0
Lttbaseref0:
	.byte	1                               ; Call site Encoding = uleb128
	.uleb128 Lcst_end0-Lcst_begin0
Lcst_begin0:
	.uleb128 Ltmp0-Lfunc_begin0             ; >> Call Site 1 <<
	.uleb128 Ltmp1-Ltmp0                    ;   Call between Ltmp0 and Ltmp1
	.uleb128 Ltmp2-Lfunc_begin0             ;     jumps to Ltmp2
	.byte	1                               ;   On action: 1
	.uleb128 Ltmp3-Lfunc_begin0             ; >> Call Site 2 <<
	.uleb128 Ltmp4-Ltmp3                    ;   Call between Ltmp3 and Ltmp4
	.uleb128 Ltmp12-Lfunc_begin0            ;     jumps to Ltmp12
	.byte	1                               ;   On action: 1
	.uleb128 Ltmp5-Lfunc_begin0             ; >> Call Site 3 <<
	.uleb128 Ltmp8-Ltmp5                    ;   Call between Ltmp5 and Ltmp8
	.uleb128 Ltmp9-Lfunc_begin0             ;     jumps to Ltmp9
	.byte	1                               ;   On action: 1
	.uleb128 Ltmp10-Lfunc_begin0            ; >> Call Site 4 <<
	.uleb128 Ltmp11-Ltmp10                  ;   Call between Ltmp10 and Ltmp11
	.uleb128 Ltmp12-Lfunc_begin0            ;     jumps to Ltmp12
	.byte	1                               ;   On action: 1
	.uleb128 Ltmp13-Lfunc_begin0            ; >> Call Site 5 <<
	.uleb128 Ltmp14-Ltmp13                  ;   Call between Ltmp13 and Ltmp14
	.uleb128 Ltmp15-Lfunc_begin0            ;     jumps to Ltmp15
	.byte	1                               ;   On action: 1
	.uleb128 Ltmp14-Lfunc_begin0            ; >> Call Site 6 <<
	.uleb128 Ltmp16-Ltmp14                  ;   Call between Ltmp14 and Ltmp16
	.byte	0                               ;     has no landing pad
	.byte	0                               ;   On action: cleanup
	.uleb128 Ltmp16-Lfunc_begin0            ; >> Call Site 7 <<
	.uleb128 Ltmp17-Ltmp16                  ;   Call between Ltmp16 and Ltmp17
	.uleb128 Ltmp18-Lfunc_begin0            ;     jumps to Ltmp18
	.byte	0                               ;   On action: cleanup
	.uleb128 Ltmp17-Lfunc_begin0            ; >> Call Site 8 <<
	.uleb128 Ltmp19-Ltmp17                  ;   Call between Ltmp17 and Ltmp19
	.byte	0                               ;     has no landing pad
	.byte	0                               ;   On action: cleanup
	.uleb128 Ltmp19-Lfunc_begin0            ; >> Call Site 9 <<
	.uleb128 Ltmp20-Ltmp19                  ;   Call between Ltmp19 and Ltmp20
	.uleb128 Ltmp21-Lfunc_begin0            ;     jumps to Ltmp21
	.byte	1                               ;   On action: 1
	.uleb128 Ltmp20-Lfunc_begin0            ; >> Call Site 10 <<
	.uleb128 Lfunc_end0-Ltmp20              ;   Call between Ltmp20 and Lfunc_end0
	.byte	0                               ;     has no landing pad
	.byte	0                               ;   On action: cleanup
Lcst_end0:
	.byte	1                               ; >> Action Record 1 <<
                                        ;   Catch TypeInfo 1
	.byte	0                               ;   No further actions
	.p2align	2, 0x0
                                        ; >> Catch TypeInfos <<
	.long	0                               ; TypeInfo 1
Lttbase0:
	.p2align	2, 0x0
                                        ; -- End function
	.section	__TEXT,__text,regular,pure_instructions
	.private_extern	__ZNSt3__116__pad_and_outputB8ne180100IcNS_11char_traitsIcEEEENS_19ostreambuf_iteratorIT_T0_EES6_PKS4_S8_S8_RNS_8ios_baseES4_ ; -- Begin function _ZNSt3__116__pad_and_outputB8ne180100IcNS_11char_traitsIcEEEENS_19ostreambuf_iteratorIT_T0_EES6_PKS4_S8_S8_RNS_8ios_baseES4_
	.globl	__ZNSt3__116__pad_and_outputB8ne180100IcNS_11char_traitsIcEEEENS_19ostreambuf_iteratorIT_T0_EES6_PKS4_S8_S8_RNS_8ios_baseES4_
	.weak_def_can_be_hidden	__ZNSt3__116__pad_and_outputB8ne180100IcNS_11char_traitsIcEEEENS_19ostreambuf_iteratorIT_T0_EES6_PKS4_S8_S8_RNS_8ios_baseES4_
	.p2align	2
__ZNSt3__116__pad_and_outputB8ne180100IcNS_11char_traitsIcEEEENS_19ostreambuf_iteratorIT_T0_EES6_PKS4_S8_S8_RNS_8ios_baseES4_: ; @_ZNSt3__116__pad_and_outputB8ne180100IcNS_11char_traitsIcEEEENS_19ostreambuf_iteratorIT_T0_EES6_PKS4_S8_S8_RNS_8ios_baseES4_
Lfunc_begin1:
	.cfi_startproc
	.cfi_personality 155, ___gxx_personality_v0
	.cfi_lsda 16, Lexception1
; %bb.0:
	sub	sp, sp, #112
	stp	x26, x25, [sp, #32]             ; 16-byte Folded Spill
	stp	x24, x23, [sp, #48]             ; 16-byte Folded Spill
	stp	x22, x21, [sp, #64]             ; 16-byte Folded Spill
	stp	x20, x19, [sp, #80]             ; 16-byte Folded Spill
	stp	x29, x30, [sp, #96]             ; 16-byte Folded Spill
	add	x29, sp, #96
	.cfi_def_cfa w29, 16
	.cfi_offset w30, -8
	.cfi_offset w29, -16
	.cfi_offset w19, -24
	.cfi_offset w20, -32
	.cfi_offset w21, -40
	.cfi_offset w22, -48
	.cfi_offset w23, -56
	.cfi_offset w24, -64
	.cfi_offset w25, -72
	.cfi_offset w26, -80
	mov	x19, x0
	cbz	x0, LBB2_16
; %bb.1:
	mov	x24, x5
	mov	x20, x4
	mov	x22, x3
	mov	x21, x2
	ldr	x8, [x4, #24]
	sub	x9, x3, x1
	subs	x8, x8, x9
	csel	x23, x8, xzr, gt
	sub	x25, x2, x1
	cmp	x25, #1
	b.lt	LBB2_3
; %bb.2:
	ldr	x8, [x19]
	ldr	x8, [x8, #96]
	mov	x0, x19
	mov	x2, x25
	blr	x8
	cmp	x0, x25
	b.ne	LBB2_15
LBB2_3:
	cmp	x23, #1
	b.lt	LBB2_12
; %bb.4:
	mov	x8, #9223372036854775800        ; =0x7ffffffffffffff8
	cmp	x23, x8
	b.hs	LBB2_17
; %bb.5:
	cmp	x23, #23
	b.hs	LBB2_7
; %bb.6:
	strb	w23, [sp, #31]
	add	x25, sp, #8
	b	LBB2_8
LBB2_7:
	and	x8, x23, #0xfffffffffffffff8
	add	x8, x8, #8
	orr	x9, x23, #0x7
	cmp	x9, #23
	csel	x8, x8, x9, eq
	add	x26, x8, #1
	mov	x0, x26
	bl	__Znwm
	mov	x25, x0
	orr	x8, x26, #0x8000000000000000
	stp	x23, x8, [sp, #16]
	str	x0, [sp, #8]
LBB2_8:
	mov	x0, x25
	mov	x1, x24
	mov	x2, x23
	bl	_memset
	strb	wzr, [x25, x23]
	ldrsb	w8, [sp, #31]
	ldr	x9, [sp, #8]
	cmp	w8, #0
	add	x8, sp, #8
	csel	x1, x9, x8, lt
	ldr	x8, [x19]
	ldr	x8, [x8, #96]
Ltmp22:
	mov	x0, x19
	mov	x2, x23
	blr	x8
Ltmp23:
; %bb.9:
	mov	x24, x0
	ldrsb	w8, [sp, #31]
	tbnz	w8, #31, LBB2_11
; %bb.10:
	cmp	x24, x23
	b.ne	LBB2_15
	b	LBB2_12
LBB2_11:
	ldr	x0, [sp, #8]
	bl	__ZdlPv
	cmp	x24, x23
	b.ne	LBB2_15
LBB2_12:
	sub	x22, x22, x21
	cmp	x22, #1
	b.lt	LBB2_14
; %bb.13:
	ldr	x8, [x19]
	ldr	x8, [x8, #96]
	mov	x0, x19
	mov	x1, x21
	mov	x2, x22
	blr	x8
	cmp	x0, x22
	b.ne	LBB2_15
LBB2_14:
	str	xzr, [x20, #24]
	b	LBB2_16
LBB2_15:
	mov	x19, #0                         ; =0x0
LBB2_16:
	mov	x0, x19
	ldp	x29, x30, [sp, #96]             ; 16-byte Folded Reload
	ldp	x20, x19, [sp, #80]             ; 16-byte Folded Reload
	ldp	x22, x21, [sp, #64]             ; 16-byte Folded Reload
	ldp	x24, x23, [sp, #48]             ; 16-byte Folded Reload
	ldp	x26, x25, [sp, #32]             ; 16-byte Folded Reload
	add	sp, sp, #112
	ret
LBB2_17:
	add	x0, sp, #8
	bl	__ZNKSt3__112basic_stringIcNS_11char_traitsIcEENS_9allocatorIcEEE20__throw_length_errorB8ne180100Ev
LBB2_18:
Ltmp24:
	mov	x19, x0
	ldrsb	w8, [sp, #31]
	tbz	w8, #31, LBB2_20
; %bb.19:
	ldr	x0, [sp, #8]
	bl	__ZdlPv
LBB2_20:
	mov	x0, x19
	bl	__Unwind_Resume
Lfunc_end1:
	.cfi_endproc
	.section	__TEXT,__gcc_except_tab
	.p2align	2, 0x0
GCC_except_table2:
Lexception1:
	.byte	255                             ; @LPStart Encoding = omit
	.byte	255                             ; @TType Encoding = omit
	.byte	1                               ; Call site Encoding = uleb128
	.uleb128 Lcst_end1-Lcst_begin1
Lcst_begin1:
	.uleb128 Lfunc_begin1-Lfunc_begin1      ; >> Call Site 1 <<
	.uleb128 Ltmp22-Lfunc_begin1            ;   Call between Lfunc_begin1 and Ltmp22
	.byte	0                               ;     has no landing pad
	.byte	0                               ;   On action: cleanup
	.uleb128 Ltmp22-Lfunc_begin1            ; >> Call Site 2 <<
	.uleb128 Ltmp23-Ltmp22                  ;   Call between Ltmp22 and Ltmp23
	.uleb128 Ltmp24-Lfunc_begin1            ;     jumps to Ltmp24
	.byte	0                               ;   On action: cleanup
	.uleb128 Ltmp23-Lfunc_begin1            ; >> Call Site 3 <<
	.uleb128 Lfunc_end1-Ltmp23              ;   Call between Ltmp23 and Lfunc_end1
	.byte	0                               ;     has no landing pad
	.byte	0                               ;   On action: cleanup
Lcst_end1:
	.p2align	2, 0x0
                                        ; -- End function
	.section	__TEXT,__text,regular,pure_instructions
	.private_extern	___clang_call_terminate ; -- Begin function __clang_call_terminate
	.globl	___clang_call_terminate
	.weak_def_can_be_hidden	___clang_call_terminate
	.p2align	2
___clang_call_terminate:                ; @__clang_call_terminate
	.cfi_startproc
; %bb.0:
	stp	x29, x30, [sp, #-16]!           ; 16-byte Folded Spill
	mov	x29, sp
	.cfi_def_cfa w29, 16
	.cfi_offset w30, -8
	.cfi_offset w29, -16
	bl	___cxa_begin_catch
	bl	__ZSt9terminatev
	.cfi_endproc
                                        ; -- End function
	.private_extern	__ZNKSt3__112basic_stringIcNS_11char_traitsIcEENS_9allocatorIcEEE20__throw_length_errorB8ne180100Ev ; -- Begin function _ZNKSt3__112basic_stringIcNS_11char_traitsIcEENS_9allocatorIcEEE20__throw_length_errorB8ne180100Ev
	.globl	__ZNKSt3__112basic_stringIcNS_11char_traitsIcEENS_9allocatorIcEEE20__throw_length_errorB8ne180100Ev
	.weak_def_can_be_hidden	__ZNKSt3__112basic_stringIcNS_11char_traitsIcEENS_9allocatorIcEEE20__throw_length_errorB8ne180100Ev
	.p2align	2
__ZNKSt3__112basic_stringIcNS_11char_traitsIcEENS_9allocatorIcEEE20__throw_length_errorB8ne180100Ev: ; @_ZNKSt3__112basic_stringIcNS_11char_traitsIcEENS_9allocatorIcEEE20__throw_length_errorB8ne180100Ev
	.cfi_startproc
; %bb.0:
	stp	x29, x30, [sp, #-16]!           ; 16-byte Folded Spill
	mov	x29, sp
	.cfi_def_cfa w29, 16
	.cfi_offset w30, -8
	.cfi_offset w29, -16
Lloh12:
	adrp	x0, l_.str.3@PAGE
Lloh13:
	add	x0, x0, l_.str.3@PAGEOFF
	bl	__ZNSt3__120__throw_length_errorB8ne180100EPKc
	.loh AdrpAdd	Lloh12, Lloh13
	.cfi_endproc
                                        ; -- End function
	.private_extern	__ZNSt3__120__throw_length_errorB8ne180100EPKc ; -- Begin function _ZNSt3__120__throw_length_errorB8ne180100EPKc
	.globl	__ZNSt3__120__throw_length_errorB8ne180100EPKc
	.weak_def_can_be_hidden	__ZNSt3__120__throw_length_errorB8ne180100EPKc
	.p2align	2
__ZNSt3__120__throw_length_errorB8ne180100EPKc: ; @_ZNSt3__120__throw_length_errorB8ne180100EPKc
Lfunc_begin2:
	.cfi_startproc
	.cfi_personality 155, ___gxx_personality_v0
	.cfi_lsda 16, Lexception2
; %bb.0:
	stp	x20, x19, [sp, #-32]!           ; 16-byte Folded Spill
	stp	x29, x30, [sp, #16]             ; 16-byte Folded Spill
	add	x29, sp, #16
	.cfi_def_cfa w29, 16
	.cfi_offset w30, -8
	.cfi_offset w29, -16
	.cfi_offset w19, -24
	.cfi_offset w20, -32
	mov	x20, x0
	mov	w0, #16                         ; =0x10
	bl	___cxa_allocate_exception
	mov	x19, x0
Ltmp25:
	mov	x1, x20
	bl	__ZNSt12length_errorC1B8ne180100EPKc
Ltmp26:
; %bb.1:
Lloh14:
	adrp	x1, __ZTISt12length_error@GOTPAGE
Lloh15:
	ldr	x1, [x1, __ZTISt12length_error@GOTPAGEOFF]
Lloh16:
	adrp	x2, __ZNSt12length_errorD1Ev@GOTPAGE
Lloh17:
	ldr	x2, [x2, __ZNSt12length_errorD1Ev@GOTPAGEOFF]
	mov	x0, x19
	bl	___cxa_throw
LBB5_2:
Ltmp27:
	mov	x20, x0
	mov	x0, x19
	bl	___cxa_free_exception
	mov	x0, x20
	bl	__Unwind_Resume
	.loh AdrpLdrGot	Lloh16, Lloh17
	.loh AdrpLdrGot	Lloh14, Lloh15
Lfunc_end2:
	.cfi_endproc
	.section	__TEXT,__gcc_except_tab
	.p2align	2, 0x0
GCC_except_table5:
Lexception2:
	.byte	255                             ; @LPStart Encoding = omit
	.byte	255                             ; @TType Encoding = omit
	.byte	1                               ; Call site Encoding = uleb128
	.uleb128 Lcst_end2-Lcst_begin2
Lcst_begin2:
	.uleb128 Lfunc_begin2-Lfunc_begin2      ; >> Call Site 1 <<
	.uleb128 Ltmp25-Lfunc_begin2            ;   Call between Lfunc_begin2 and Ltmp25
	.byte	0                               ;     has no landing pad
	.byte	0                               ;   On action: cleanup
	.uleb128 Ltmp25-Lfunc_begin2            ; >> Call Site 2 <<
	.uleb128 Ltmp26-Ltmp25                  ;   Call between Ltmp25 and Ltmp26
	.uleb128 Ltmp27-Lfunc_begin2            ;     jumps to Ltmp27
	.byte	0                               ;   On action: cleanup
	.uleb128 Ltmp26-Lfunc_begin2            ; >> Call Site 3 <<
	.uleb128 Lfunc_end2-Ltmp26              ;   Call between Ltmp26 and Lfunc_end2
	.byte	0                               ;     has no landing pad
	.byte	0                               ;   On action: cleanup
Lcst_end2:
	.p2align	2, 0x0
                                        ; -- End function
	.section	__TEXT,__text,regular,pure_instructions
	.private_extern	__ZNSt12length_errorC1B8ne180100EPKc ; -- Begin function _ZNSt12length_errorC1B8ne180100EPKc
	.globl	__ZNSt12length_errorC1B8ne180100EPKc
	.weak_def_can_be_hidden	__ZNSt12length_errorC1B8ne180100EPKc
	.p2align	2
__ZNSt12length_errorC1B8ne180100EPKc:   ; @_ZNSt12length_errorC1B8ne180100EPKc
	.cfi_startproc
; %bb.0:
	stp	x29, x30, [sp, #-16]!           ; 16-byte Folded Spill
	mov	x29, sp
	.cfi_def_cfa w29, 16
	.cfi_offset w30, -8
	.cfi_offset w29, -16
	bl	__ZNSt11logic_errorC2EPKc
Lloh18:
	adrp	x8, __ZTVSt12length_error@GOTPAGE
Lloh19:
	ldr	x8, [x8, __ZTVSt12length_error@GOTPAGEOFF]
	add	x8, x8, #16
	str	x8, [x0]
	ldp	x29, x30, [sp], #16             ; 16-byte Folded Reload
	ret
	.loh AdrpLdrGot	Lloh18, Lloh19
	.cfi_endproc
                                        ; -- End function
	.section	__TEXT,__cstring,cstring_literals
l_.str:                                 ; @.str
	.asciz	"Sum: "

l_.str.1:                               ; @.str.1
	.asciz	", Time: "

l_.str.2:                               ; @.str.2
	.asciz	" ms\n"

l_.str.3:                               ; @.str.3
	.asciz	"basic_string"

	.section	__TEXT,__literal16,16byte_literals
	.p2align	4, 0x0                          ; @.memset_pattern
l_.memset_pattern:
	.quad	0x3ff0000000000000              ; double 1
	.quad	0x3ff0000000000000              ; double 1

.subsections_via_symbols
